target datalayout = "e-m:e-p270:32:32-p271:32:32-p272:64:64-i64:64-i128:128-f80:128-n8:16:32:64-S128"
target triple = "x86_64-pc-linux-gnu"

%struct.UDataInfo = type { i16, i16, i8, i8, i8, i8, [4 x i8], [4 x i8], [4 x i8] }
%struct.UConverterSelector = type { ptr, ptr, i32, ptr, i32, i32, ptr, i8, i8 }
%struct.DataHeader = type { %struct.MappedData, %struct.UDataInfo }
%struct.MappedData = type { i16, i8, i8 }

@_ZL8dataInfo = internal constant %struct.UDataInfo { i16 20, i16 0, i8 0, i8 0, i8 2, i8 0, [4 x i8] c"CSel", [4 x i8] c"\01\00\00\00", [4 x i8] zeroinitializer }, align 2

; Function Attrs: inlinehint mustprogress nounwind uwtable
define internal noundef signext i8 @_ZL9U_FAILURE10UErrorCode(i32 noundef %0) #1 {
  %2 = alloca i32, align 4
  store i32 %0, ptr %2, align 4, !tbaa !16
  %3 = load i32, ptr %2, align 4, !tbaa !16
  %4 = icmp sgt i32 %3, 0
  %5 = zext i1 %4 to i8
  ret i8 %5
}

; Function Attrs: mustprogress uwtable
define i32 @ucnvsel_serialize_77(ptr noundef %0, ptr noundef %1, i32 noundef %2, ptr noundef %3) #0 {
  %5 = alloca i32, align 4
  %6 = alloca ptr, align 8
  %7 = alloca ptr, align 8
  %8 = alloca i32, align 4
  %9 = alloca ptr, align 8
  %10 = alloca ptr, align 8
  %11 = alloca i32, align 4
  %12 = alloca i32, align 4
  %13 = alloca %struct.DataHeader, align 2
  %14 = alloca [16 x i32], align 16
  %15 = alloca i32, align 4
  %16 = alloca i32, align 4
  store ptr %0, ptr %6, align 8, !tbaa !36
  store ptr %1, ptr %7, align 8, !tbaa !15
  store i32 %2, ptr %8, align 4, !tbaa !9
  store ptr %3, ptr %9, align 8, !tbaa !15
  %17 = load ptr, ptr %9, align 8, !tbaa !15
  %18 = load i32, ptr %17, align 4, !tbaa !16
  %19 = call noundef signext i8 @_ZL9U_FAILURE10UErrorCode(i32 noundef %18)
  %20 = icmp ne i8 %19, 0
  br i1 %20, label %21, label %22

21:                                               ; preds = %4
  store i32 0, ptr %5, align 4
  br label %188

22:                                               ; preds = %4
  call void @llvm.lifetime.start.p0(i64 8, ptr %10) #11
  %23 = load ptr, ptr %7, align 8, !tbaa !15
  store ptr %23, ptr %10, align 8, !tbaa !23
  %24 = load i32, ptr %8, align 4, !tbaa !9
  %25 = icmp slt i32 %24, 0
  br i1 %25, label %37, label %26

26:                                               ; preds = %22
  %27 = load i32, ptr %8, align 4, !tbaa !9
  %28 = icmp sgt i32 %27, 0
  br i1 %28, label %29, label %39

29:                                               ; preds = %26
  %30 = load ptr, ptr %10, align 8, !tbaa !23
  %31 = icmp eq ptr %30, null
  br i1 %31, label %37, label %32

32:                                               ; preds = %29
  %33 = load ptr, ptr %10, align 8, !tbaa !23
  %34 = ptrtoint ptr %33 to i64
  %35 = and i64 %34, 3
  %36 = icmp ne i64 %35, 0
  br i1 %36, label %37, label %39

37:                                               ; preds = %32, %29, %22
  %38 = load ptr, ptr %9, align 8, !tbaa !15
  store i32 1, ptr %38, align 4, !tbaa !16
  store i32 0, ptr %5, align 4
  store i32 1, ptr %11, align 4
  br label %187

39:                                               ; preds = %32, %26
  call void @llvm.lifetime.start.p0(i64 4, ptr %12) #11
  %40 = load ptr, ptr %6, align 8, !tbaa !36
  %41 = getelementptr inbounds nuw %struct.UConverterSelector, ptr %40, i32 0, i32 0
  %42 = load ptr, ptr %41, align 8, !tbaa !49
  %43 = load ptr, ptr %9, align 8, !tbaa !15
  %44 = call i32 @utrie2_serialize_77(ptr noundef %42, ptr noundef null, i32 noundef 0, ptr noundef %43)
  store i32 %44, ptr %12, align 4, !tbaa !9
  %45 = load ptr, ptr %9, align 8, !tbaa !15
  %46 = load i32, ptr %45, align 4, !tbaa !16
  %47 = icmp ne i32 %46, 15
  br i1 %47, label %48, label %54

48:                                               ; preds = %39
  %49 = load ptr, ptr %9, align 8, !tbaa !15
  %50 = load i32, ptr %49, align 4, !tbaa !16
  %51 = call noundef signext i8 @_ZL9U_FAILURE10UErrorCode(i32 noundef %50)
  %52 = icmp ne i8 %51, 0
  br i1 %52, label %53, label %54

53:                                               ; preds = %48
  store i32 0, ptr %5, align 4
  store i32 1, ptr %11, align 4
  br label %186

54:                                               ; preds = %48, %39
  %55 = load ptr, ptr %9, align 8, !tbaa !15
  store i32 0, ptr %55, align 4, !tbaa !16
  call void @llvm.lifetime.start.p0(i64 24, ptr %13) #11
  call void @llvm.memset.p0.i64(ptr align 2 %13, i8 0, i64 24, i1 false)
  %56 = getelementptr inbounds nuw %struct.DataHeader, ptr %13, i32 0, i32 0
  %57 = getelementptr inbounds nuw %struct.MappedData, ptr %56, i32 0, i32 0
  store i16 32, ptr %57, align 2, !tbaa !54
  %58 = getelementptr inbounds nuw %struct.DataHeader, ptr %13, i32 0, i32 0
  %59 = getelementptr inbounds nuw %struct.MappedData, ptr %58, i32 0, i32 1
  store i8 -38, ptr %59, align 2, !tbaa !59
  %60 = getelementptr inbounds nuw %struct.DataHeader, ptr %13, i32 0, i32 0
  %61 = getelementptr inbounds nuw %struct.MappedData, ptr %60, i32 0, i32 2
  store i8 39, ptr %61, align 1, !tbaa !60
  br label %62

62:                                               ; preds = %54
  %63 = getelementptr inbounds nuw %struct.DataHeader, ptr %13, i32 0, i32 1
  call void @llvm.memcpy.p0.p0.i64(ptr align 2 %63, ptr align 2 @_ZL8dataInfo, i64 20, i1 false)
  br label %64

64:                                               ; preds = %62
  br label %65

65:                                               ; preds = %64
  call void @llvm.lifetime.start.p0(i64 64, ptr %14) #11
  call void @llvm.memset.p0.i64(ptr align 16 %14, i8 0, i64 64, i1 false)
  %66 = load i32, ptr %12, align 4, !tbaa !9
  store i32 %66, ptr %14, align 4, !tbaa !9
  %67 = getelementptr inbounds i32, ptr %14, i64 1
  %68 = load ptr, ptr %6, align 8, !tbaa !36
  %69 = getelementptr inbounds nuw %struct.UConverterSelector, ptr %68, i32 0, i32 2
  %70 = load i32, ptr %69, align 8, !tbaa !51
  store i32 %70, ptr %67, align 4, !tbaa !9
  %71 = getelementptr inbounds i32, ptr %14, i64 2
  %72 = load ptr, ptr %6, align 8, !tbaa !36
  %73 = getelementptr inbounds nuw %struct.UConverterSelector, ptr %72, i32 0, i32 4
  %74 = load i32, ptr %73, align 8, !tbaa !31
  store i32 %74, ptr %71, align 4, !tbaa !9
  %75 = getelementptr inbounds i32, ptr %14, i64 3
  %76 = load ptr, ptr %6, align 8, !tbaa !36
  %77 = getelementptr inbounds nuw %struct.UConverterSelector, ptr %76, i32 0, i32 5
  %78 = load i32, ptr %77, align 4, !tbaa !26
  store i32 %78, ptr %75, align 4, !tbaa !9
  call void @llvm.lifetime.start.p0(i64 4, ptr %15) #11
  %79 = getelementptr inbounds nuw %struct.DataHeader, ptr %13, i32 0, i32 0
  %80 = getelementptr inbounds nuw %struct.MappedData, ptr %79, i32 0, i32 0
  %81 = load i16, ptr %80, align 2, !tbaa !54
  %82 = zext i16 %81 to i32
  %83 = add nsw i32 %82, 64
  %84 = load i32, ptr %12, align 4, !tbaa !9
  %85 = add nsw i32 %83, %84
  %86 = load ptr, ptr %6, align 8, !tbaa !36
  %87 = getelementptr inbounds nuw %struct.UConverterSelector, ptr %86, i32 0, i32 2
  %88 = load i32, ptr %87, align 8, !tbaa !51
  %89 = mul nsw i32 %88, 4
  %90 = add nsw i32 %85, %89
  %91 = load ptr, ptr %6, align 8, !tbaa !36
  %92 = getelementptr inbounds nuw %struct.UConverterSelector, ptr %91, i32 0, i32 5
  %93 = load i32, ptr %92, align 4, !tbaa !26
  %94 = add nsw i32 %90, %93
  store i32 %94, ptr %15, align 4, !tbaa !9
  %95 = load i32, ptr %15, align 4, !tbaa !9
  %96 = getelementptr inbounds nuw %struct.DataHeader, ptr %13, i32 0, i32 0
  %97 = getelementptr inbounds nuw %struct.MappedData, ptr %96, i32 0, i32 0
  %98 = load i16, ptr %97, align 2, !tbaa !54
  %99 = zext i16 %98 to i32
  %100 = sub nsw i32 %95, %99
  %101 = getelementptr inbounds nuw [16 x i32], ptr %14, i64 0, i64 15
  store i32 %100, ptr %101, align 4, !tbaa !9
  %102 = load i32, ptr %15, align 4, !tbaa !9
  %103 = load i32, ptr %8, align 4, !tbaa !9
  %104 = icmp sgt i32 %102, %103
  br i1 %104, label %105, label %108

105:                                              ; preds = %65
  %106 = load ptr, ptr %9, align 8, !tbaa !15
  store i32 15, ptr %106, align 4, !tbaa !16
  %107 = load i32, ptr %15, align 4, !tbaa !9
  store i32 %107, ptr %5, align 4
  store i32 1, ptr %11, align 4
  br label %185

108:                                              ; preds = %65
  call void @llvm.lifetime.start.p0(i64 4, ptr %16) #11
  %109 = getelementptr inbounds nuw %struct.DataHeader, ptr %13, i32 0, i32 0
  %110 = getelementptr inbounds nuw %struct.MappedData, ptr %109, i32 0, i32 0
  %111 = load i16, ptr %110, align 2, !tbaa !54
  %112 = zext i16 %111 to i32
  store i32 %112, ptr %16, align 4, !tbaa !9
  br label %113

113:                                              ; preds = %108
  %114 = load ptr, ptr %10, align 8, !tbaa !23
  call void @llvm.memcpy.p0.p0.i64(ptr align 1 %114, ptr align 2 %13, i64 24, i1 false)
  br label %115

115:                                              ; preds = %113
  br label %116

116:                                              ; preds = %115
  %117 = load ptr, ptr %10, align 8, !tbaa !23
  %118 = getelementptr inbounds nuw i8, ptr %117, i64 24
  %119 = load i32, ptr %16, align 4, !tbaa !9
  %120 = sext i32 %119 to i64
  %121 = sub i64 %120, 24
  call void @llvm.memset.p0.i64(ptr align 1 %118, i8 0, i64 %121, i1 false)
  %122 = load i32, ptr %16, align 4, !tbaa !9
  %123 = load ptr, ptr %10, align 8, !tbaa !23
  %124 = sext i32 %122 to i64
  %125 = getelementptr inbounds i8, ptr %123, i64 %124
  store ptr %125, ptr %10, align 8, !tbaa !23
  store i32 64, ptr %16, align 4, !tbaa !9
  br label %126

126:                                              ; preds = %116
  %127 = load ptr, ptr %10, align 8, !tbaa !23
  %128 = getelementptr inbounds [16 x i32], ptr %14, i64 0, i64 0
  %129 = load i32, ptr %16, align 4, !tbaa !9
  %130 = sext i32 %129 to i64
  call void @llvm.memcpy.p0.p0.i64(ptr align 1 %127, ptr align 16 %128, i64 %130, i1 false)
  br label %131

131:                                              ; preds = %126
  br label %132

132:                                              ; preds = %131
  %133 = load i32, ptr %16, align 4, !tbaa !9
  %134 = load ptr, ptr %10, align 8, !tbaa !23
  %135 = sext i32 %133 to i64
  %136 = getelementptr inbounds i8, ptr %134, i64 %135
  store ptr %136, ptr %10, align 8, !tbaa !23
  %137 = load ptr, ptr %6, align 8, !tbaa !36
  %138 = getelementptr inbounds nuw %struct.UConverterSelector, ptr %137, i32 0, i32 0
  %139 = load ptr, ptr %138, align 8, !tbaa !49
  %140 = load ptr, ptr %10, align 8, !tbaa !23
  %141 = load i32, ptr %12, align 4, !tbaa !9
  %142 = load ptr, ptr %9, align 8, !tbaa !15
  %143 = call i32 @utrie2_serialize_77(ptr noundef %139, ptr noundef %140, i32 noundef %141, ptr noundef %142)
  %144 = load i32, ptr %12, align 4, !tbaa !9
  %145 = load ptr, ptr %10, align 8, !tbaa !23
  %146 = sext i32 %144 to i64
  %147 = getelementptr inbounds i8, ptr %145, i64 %146
  store ptr %147, ptr %10, align 8, !tbaa !23
  %148 = load ptr, ptr %6, align 8, !tbaa !36
  %149 = getelementptr inbounds nuw %struct.UConverterSelector, ptr %148, i32 0, i32 2
  %150 = load i32, ptr %149, align 8, !tbaa !51
  %151 = mul nsw i32 %150, 4
  store i32 %151, ptr %16, align 4, !tbaa !9
  br label %152

152:                                              ; preds = %132
  %153 = load ptr, ptr %10, align 8, !tbaa !23
  %154 = load ptr, ptr %6, align 8, !tbaa !36
  %155 = getelementptr inbounds nuw %struct.UConverterSelector, ptr %154, i32 0, i32 1
  %156 = load ptr, ptr %155, align 8, !tbaa !50
  %157 = load i32, ptr %16, align 4, !tbaa !9
  %158 = sext i32 %157 to i64
  call void @llvm.memcpy.p0.p0.i64(ptr align 1 %153, ptr align 4 %156, i64 %158, i1 false)
  br label %159

159:                                              ; preds = %152
  br label %160

160:                                              ; preds = %159
  %161 = load i32, ptr %16, align 4, !tbaa !9
  %162 = load ptr, ptr %10, align 8, !tbaa !23
  %163 = sext i32 %161 to i64
  %164 = getelementptr inbounds i8, ptr %162, i64 %163
  store ptr %164, ptr %10, align 8, !tbaa !23
  br label %165

165:                                              ; preds = %160
  %166 = load ptr, ptr %10, align 8, !tbaa !23
  %167 = load ptr, ptr %6, align 8, !tbaa !36
  %168 = getelementptr inbounds nuw %struct.UConverterSelector, ptr %167, i32 0, i32 3
  %169 = load ptr, ptr %168, align 8, !tbaa !18
  %170 = getelementptr inbounds ptr, ptr %169, i64 0
  %171 = load ptr, ptr %170, align 8, !tbaa !23
  %172 = load ptr, ptr %6, align 8, !tbaa !36
  %173 = getelementptr inbounds nuw %struct.UConverterSelector, ptr %172, i32 0, i32 5
  %174 = load i32, ptr %173, align 4, !tbaa !26
  %175 = sext i32 %174 to i64
  call void @llvm.memcpy.p0.p0.i64(ptr align 1 %166, ptr align 1 %171, i64 %175, i1 false)
  br label %176

176:                                              ; preds = %165
  br label %177

177:                                              ; preds = %176
  %178 = load ptr, ptr %6, align 8, !tbaa !36
  %179 = getelementptr inbounds nuw %struct.UConverterSelector, ptr %178, i32 0, i32 5
  %180 = load i32, ptr %179, align 4, !tbaa !26
  %181 = load ptr, ptr %10, align 8, !tbaa !23
  %182 = sext i32 %180 to i64
  %183 = getelementptr inbounds i8, ptr %181, i64 %182
  store ptr %183, ptr %10, align 8, !tbaa !23
  %184 = load i32, ptr %15, align 4, !tbaa !9
  store i32 %184, ptr %5, align 4
  store i32 1, ptr %11, align 4
  call void @llvm.lifetime.end.p0(i64 4, ptr %16) #11
  br label %185

185:                                              ; preds = %177, %105
  call void @llvm.lifetime.end.p0(i64 4, ptr %15) #11
  call void @llvm.lifetime.end.p0(i64 64, ptr %14) #11
  call void @llvm.lifetime.end.p0(i64 24, ptr %13) #11
  br label %186

186:                                              ; preds = %185, %53
  call void @llvm.lifetime.end.p0(i64 4, ptr %12) #11
  br label %187

187:                                              ; preds = %186, %37
  call void @llvm.lifetime.end.p0(i64 8, ptr %10) #11
  br label %188

188:                                              ; preds = %187, %21
  %189 = load i32, ptr %5, align 4
  ret i32 %189
}