; Function Attrs: mustprogress uwtable
define i32 @ucnvsel_serialize_77(ptr noundef readonly captures(none) %0, ptr noundef %1, i32 noundef %2, ptr noundef %3) local_unnamed_addr #0 {
  %5 = load i32, ptr %3, align 4, !tbaa !3
  %6 = icmp slt i32 %5, 1
  br i1 %6, label %7, label %53

7:                                                ; preds = %4
  %8 = icmp slt i32 %2, 0
  br i1 %8, label %14, label %9

9:                                                ; preds = %7
  %.not59 = icmp eq i32 %2, 0
  br i1 %.not59, label %15, label %10

10:                                               ; preds = %9
  %11 = icmp ne ptr %1, null
  %12 = ptrtoint ptr %1 to i64
  %13 = and i64 %12, 3
  %.not60 = icmp eq i64 %13, 0
  %or.cond = and i1 %11, %.not60
  br i1 %or.cond, label %15, label %14

14:                                               ; preds = %10, %7
  store i32 1, ptr %3, align 4, !tbaa !3
  br label %53

15:                                               ; preds = %10, %9
  %16 = load ptr, ptr %0, align 8, !tbaa !33
  %17 = tail call i32 @utrie2_serialize_77(ptr noundef %16, ptr noundef null, i32 noundef 0, ptr noundef nonnull %3)
  %18 = load i32, ptr %3, align 4, !tbaa !3
  %.not61 = icmp eq i32 %18, 15
  %19 = icmp slt i32 %18, 1
  %or.cond66 = or i1 %.not61, %19
  br i1 %or.cond66, label %20, label %53

20:                                               ; preds = %15
  store i32 0, ptr %3, align 4, !tbaa !3
  %21 = getelementptr inbounds nuw i8, ptr %0, i64 16
  %22 = load i32, ptr %21, align 8, !tbaa !35
  %23 = getelementptr inbounds nuw i8, ptr %0, i64 36
  %24 = load i32, ptr %23, align 4, !tbaa !22
  %25 = add nsw i32 %17, 96
  %26 = shl nsw i32 %22, 2
  %27 = add nsw i32 %25, %26
  %28 = add nsw i32 %27, %24
  %29 = icmp sgt i32 %28, %2
  br i1 %29, label %30, label %31

30:                                               ; preds = %20
  store i32 15, ptr %3, align 4, !tbaa !3
  br label %53

31:                                               ; preds = %20
  %32 = add nsw i32 %28, -32
  %33 = getelementptr inbounds nuw i8, ptr %0, i64 32
  %34 = load i32, ptr %33, align 8, !tbaa !26
  store i16 32, ptr %1, align 1
  %.sroa.8.0..sroa_idx = getelementptr inbounds nuw i8, ptr %1, i64 2
  store i8 -38, ptr %.sroa.8.0..sroa_idx, align 1
  %.sroa.9.0..sroa_idx = getelementptr inbounds nuw i8, ptr %1, i64 3
  store i8 39, ptr %.sroa.9.0..sroa_idx, align 1
  %.sroa.10.0..sroa_idx = getelementptr inbounds nuw i8, ptr %1, i64 4
  tail call void @llvm.memcpy.p0.p0.i64(ptr noundef nonnull align 1 dereferenceable(20) %.sroa.10.0..sroa_idx, ptr noundef nonnull align 2 dereferenceable(20) @_ZL8dataInfo, i64 20, i1 false)
  %35 = getelementptr inbounds nuw i8, ptr %1, i64 24
  store i64 0, ptr %35, align 1
  %36 = getelementptr inbounds nuw i8, ptr %1, i64 32
  store i32 %17, ptr %36, align 1
  %.sroa.5.0..sroa_idx = getelementptr inbounds nuw i8, ptr %1, i64 36
  store i32 %22, ptr %.sroa.5.0..sroa_idx, align 1
  %.sroa.6.0..sroa_idx = getelementptr inbounds nuw i8, ptr %1, i64 40
  store i32 %34, ptr %.sroa.6.0..sroa_idx, align 1
  %.sroa.7.0..sroa_idx = getelementptr inbounds nuw i8, ptr %1, i64 44
  store i32 %24, ptr %.sroa.7.0..sroa_idx, align 1
  %.sroa.8.0..sroa_idx64 = getelementptr inbounds nuw i8, ptr %1, i64 48
  tail call void @llvm.memset.p0.i64(ptr noundef nonnull align 1 dereferenceable(44) %.sroa.8.0..sroa_idx64, i8 0, i64 44, i1 false)
  %.sroa.865.0..sroa_idx = getelementptr inbounds nuw i8, ptr %1, i64 92
  store i32 %32, ptr %.sroa.865.0..sroa_idx, align 1
  %37 = getelementptr inbounds nuw i8, ptr %1, i64 96
  %38 = load ptr, ptr %0, align 8, !tbaa !33
  %39 = tail call i32 @utrie2_serialize_77(ptr noundef %38, ptr noundef nonnull %37, i32 noundef %17, ptr noundef nonnull %3)
  %40 = sext i32 %17 to i64
  %41 = getelementptr inbounds i8, ptr %37, i64 %40
  %42 = load i32, ptr %21, align 8, !tbaa !35
  %43 = shl nsw i32 %42, 2
  %44 = getelementptr inbounds nuw i8, ptr %0, i64 8
  %45 = load ptr, ptr %44, align 8, !tbaa !34
  %46 = sext i32 %43 to i64
  tail call void @llvm.memcpy.p0.p0.i64(ptr nonnull align 1 %41, ptr align 4 %45, i64 %46, i1 false)
  %47 = getelementptr inbounds i8, ptr %41, i64 %46
  %48 = getelementptr inbounds nuw i8, ptr %0, i64 24
  %49 = load ptr, ptr %48, align 8, !tbaa !11
  %50 = load ptr, ptr %49, align 8, !tbaa !19
  %51 = load i32, ptr %23, align 4, !tbaa !22
  %52 = sext i32 %51 to i64
  tail call void @llvm.memcpy.p0.p0.i64(ptr nonnull align 1 %47, ptr align 1 %50, i64 %52, i1 false)
  br label %53

53:                                               ; preds = %30, %31, %15, %14, %4
  %.0 = phi i32 [ 0, %4 ], [ 0, %14 ], [ 0, %15 ], [ %28, %31 ], [ %28, %30 ]
  ret i32 %.0
}